target datalayout = "e-m:e-p270:32:32-p271:32:32-p272:64:64-i64:64-i128:128-f80:128-n8:16:32:64-S128"
target triple = "x86_64-pc-linux-gnu"

%struct.PsyLamePreset = type { i32, float }
%struct.AVCodecContext = type { ptr, i32, i32, ptr, i32, i32, ptr, ptr, ptr, i64, i32, i32, ptr, i32, %struct.AVRational, %struct.AVRational, %struct.AVRational, i32, i32, i32, i32, i32, %struct.AVRational, i32, i32, i32, i32, i32, i32, i32, i32, i32, i32, i32, ptr, ptr, i32, float, float, float, float, float, float, float, float, float, i32, i32, i32, i32, i32, i32, i32, i32, i32, i32, i32, i32, ptr, ptr, ptr, i32, i32, i32, i32, i32, i32, i32, i32, i32, i32, %struct.AVChannelLayout, i32, i32, i32, i32, i32, i32, i32, i32, ptr, i32, i32, i32, float, float, i32, i32, i32, i32, i32, ptr, i64, i64, float, float, i32, i32, ptr, ptr, i32, i32, i32, i32, i32, ptr, ptr, ptr, ptr, i32, i32, [8 x i64], i32, i32, i32, i32, i32, i32, i32, ptr, ptr, i32, i32, i32, i32, i32, i32, i32, i32, i32, i32, ptr, ptr, i32, i32, ptr, ptr, ptr, ptr, i32, i32, i64, i32, i32, i64, ptr, i64, ptr, i32, ptr, i32 }
%struct.AVRational = type { i32, i32 }
%struct.AVChannelLayout = type { i32, i32, %union.anon, ptr }
%union.anon = type { i64 }
%struct.AacPsyContext = type { i32, i32, i32, %struct.anon.0, [2 x [64 x %struct.AacPsyCoeffs]], ptr, float }
%struct.anon.0 = type { float, float, float, float }
%struct.AacPsyCoeffs = type { float, float, [2 x float], [2 x float], float }
%struct.AacPsyChannel = type { [128 x %struct.AacPsyBand], [128 x %struct.AacPsyBand], float, [2 x float], i8, i32, float, [24 x float], i32 }
%struct.AacPsyBand = type { float, float, float, float, float, float, float, float, i32 }

; Function Attrs: nounwind uwtable
define internal float @lame_calc_attack_threshold(i32 noundef %0) #1 {
  %2 = alloca float, align 4
  %3 = alloca i32, align 4
  %4 = alloca i32, align 4
  %5 = alloca i32, align 4
  %6 = alloca i32, align 4
  %7 = alloca i32, align 4
  %8 = alloca i32, align 4
  %9 = alloca i32, align 4
  store i32 %0, ptr %3, align 4, !tbaa !39
  call void @llvm.lifetime.start.p0(i64 4, ptr %4) #9
  store i32 12, ptr %4, align 4, !tbaa !39
  call void @llvm.lifetime.start.p0(i64 4, ptr %5) #9
  store i32 12, ptr %5, align 4, !tbaa !39
  call void @llvm.lifetime.start.p0(i64 4, ptr %6) #9
  store i32 160, ptr %6, align 4, !tbaa !39
  call void @llvm.lifetime.start.p0(i64 4, ptr %7) #9
  store i32 160, ptr %7, align 4, !tbaa !39
  call void @llvm.lifetime.start.p0(i64 4, ptr %8) #9
  store i32 1, ptr %8, align 4, !tbaa !39
  br label %10

10:                                               ; preds = %49, %1
  %11 = load i32, ptr %8, align 4, !tbaa !39
  %12 = icmp slt i32 %11, 13
  br i1 %12, label %13, label %52

13:                                               ; preds = %10
  %14 = load i32, ptr %3, align 4, !tbaa !39
  %15 = load i32, ptr %8, align 4, !tbaa !39
  %16 = sext i32 %15 to i64
  %17 = getelementptr inbounds [13 x %struct.PsyLamePreset], ptr @psy_abr_map, i64 0, i64 %16
  %18 = getelementptr inbounds nuw %struct.PsyLamePreset, ptr %17, i32 0, i32 0
  %19 = load i32, ptr %18, align 8, !tbaa !107
  %20 = icmp sgt i32 %14, %19
  br i1 %20, label %21, label %23

21:                                               ; preds = %13
  %22 = load i32, ptr %3, align 4, !tbaa !39
  br label %29

23:                                               ; preds = %13
  %24 = load i32, ptr %8, align 4, !tbaa !39
  %25 = sext i32 %24 to i64
  %26 = getelementptr inbounds [13 x %struct.PsyLamePreset], ptr @psy_abr_map, i64 0, i64 %25
  %27 = getelementptr inbounds nuw %struct.PsyLamePreset, ptr %26, i32 0, i32 0
  %28 = load i32, ptr %27, align 8, !tbaa !107
  br label %29

29:                                               ; preds = %23, %21
  %30 = phi i32 [ %22, %21 ], [ %28, %23 ]
  %31 = load i32, ptr %3, align 4, !tbaa !39
  %32 = icmp ne i32 %30, %31
  br i1 %32, label %33, label %48

33:                                               ; preds = %29
  %34 = load i32, ptr %8, align 4, !tbaa !39
  store i32 %34, ptr %5, align 4, !tbaa !39
  %35 = load i32, ptr %8, align 4, !tbaa !39
  %36 = sext i32 %35 to i64
  %37 = getelementptr inbounds [13 x %struct.PsyLamePreset], ptr @psy_abr_map, i64 0, i64 %36
  %38 = getelementptr inbounds nuw %struct.PsyLamePreset, ptr %37, i32 0, i32 0
  %39 = load i32, ptr %38, align 8, !tbaa !107
  store i32 %39, ptr %7, align 4, !tbaa !39
  %40 = load i32, ptr %8, align 4, !tbaa !39
  %41 = sub nsw i32 %40, 1
  store i32 %41, ptr %4, align 4, !tbaa !39
  %42 = load i32, ptr %8, align 4, !tbaa !39
  %43 = sub nsw i32 %42, 1
  %44 = sext i32 %43 to i64
  %45 = getelementptr inbounds [13 x %struct.PsyLamePreset], ptr @psy_abr_map, i64 0, i64 %44
  %46 = getelementptr inbounds nuw %struct.PsyLamePreset, ptr %45, i32 0, i32 0
  %47 = load i32, ptr %46, align 8, !tbaa !107
  store i32 %47, ptr %6, align 4, !tbaa !39
  br label %52

48:                                               ; preds = %29
  br label %49

49:                                               ; preds = %48
  %50 = load i32, ptr %8, align 4, !tbaa !39
  %51 = add nsw i32 %50, 1
  store i32 %51, ptr %8, align 4, !tbaa !39
  br label %10, !llvm.loop !108

52:                                               ; preds = %33, %10
  %53 = load i32, ptr %7, align 4, !tbaa !39
  %54 = load i32, ptr %3, align 4, !tbaa !39
  %55 = sub nsw i32 %53, %54
  %56 = load i32, ptr %3, align 4, !tbaa !39
  %57 = load i32, ptr %6, align 4, !tbaa !39
  %58 = sub nsw i32 %56, %57
  %59 = icmp sgt i32 %55, %58
  br i1 %59, label %60, label %66

60:                                               ; preds = %52
  %61 = load i32, ptr %4, align 4, !tbaa !39
  %62 = sext i32 %61 to i64
  %63 = getelementptr inbounds [13 x %struct.PsyLamePreset], ptr @psy_abr_map, i64 0, i64 %62
  %64 = getelementptr inbounds nuw %struct.PsyLamePreset, ptr %63, i32 0, i32 1
  %65 = load float, ptr %64, align 4, !tbaa !103
  store float %65, ptr %2, align 4
  store i32 1, ptr %9, align 4
  br label %72

66:                                               ; preds = %52
  %67 = load i32, ptr %5, align 4, !tbaa !39
  %68 = sext i32 %67 to i64
  %69 = getelementptr inbounds [13 x %struct.PsyLamePreset], ptr @psy_abr_map, i64 0, i64 %68
  %70 = getelementptr inbounds nuw %struct.PsyLamePreset, ptr %69, i32 0, i32 1
  %71 = load float, ptr %70, align 4, !tbaa !103
  store float %71, ptr %2, align 4
  store i32 1, ptr %9, align 4
  br label %72

72:                                               ; preds = %66, %60
  call void @llvm.lifetime.end.p0(i64 4, ptr %8) #9
  call void @llvm.lifetime.end.p0(i64 4, ptr %7) #9
  call void @llvm.lifetime.end.p0(i64 4, ptr %6) #9
  call void @llvm.lifetime.end.p0(i64 4, ptr %5) #9
  call void @llvm.lifetime.end.p0(i64 4, ptr %4) #9
  %73 = load float, ptr %2, align 4
  ret float %73
}

; Function Attrs: alwaysinline nounwind willreturn memory(none) uwtable
define internal i32 @av_clip_c(i32 noundef %0, i32 noundef %1, i32 noundef %2) #6 {
  %4 = alloca i32, align 4
  %5 = alloca i32, align 4
  %6 = alloca i32, align 4
  %7 = alloca i32, align 4
  store i32 %0, ptr %5, align 4, !tbaa !39
  store i32 %1, ptr %6, align 4, !tbaa !39
  store i32 %2, ptr %7, align 4, !tbaa !39
  %8 = load i32, ptr %5, align 4, !tbaa !39
  %9 = load i32, ptr %6, align 4, !tbaa !39
  %10 = icmp slt i32 %8, %9
  br i1 %10, label %11, label %13

11:                                               ; preds = %3
  %12 = load i32, ptr %6, align 4, !tbaa !39
  store i32 %12, ptr %4, align 4
  br label %21

13:                                               ; preds = %3
  %14 = load i32, ptr %5, align 4, !tbaa !39
  %15 = load i32, ptr %7, align 4, !tbaa !39
  %16 = icmp sgt i32 %14, %15
  br i1 %16, label %17, label %19

17:                                               ; preds = %13
  %18 = load i32, ptr %7, align 4, !tbaa !39
  store i32 %18, ptr %4, align 4
  br label %21

19:                                               ; preds = %13
  %20 = load i32, ptr %5, align 4, !tbaa !39
  store i32 %20, ptr %4, align 4
  br label %21

21:                                               ; preds = %19, %17, %11
  %22 = load i32, ptr %4, align 4
  ret i32 %22
}

; Function Attrs: cold nounwind optsize uwtable
define internal void @lame_window_init(ptr noundef %0, ptr noundef %1) #0 {
  %3 = alloca ptr, align 8
  %4 = alloca ptr, align 8
  %5 = alloca i32, align 4
  %6 = alloca i32, align 4
  %7 = alloca ptr, align 8
  store ptr %0, ptr %3, align 8, !tbaa !44
  store ptr %1, ptr %4, align 8, !tbaa !102
  call void @llvm.lifetime.start.p0(i64 4, ptr %5) #9
  call void @llvm.lifetime.start.p0(i64 4, ptr %6) #9
  store i32 0, ptr %5, align 4, !tbaa !39
  br label %8

8:                                                ; preds = %68, %2
  %9 = load i32, ptr %5, align 4, !tbaa !39
  %10 = load ptr, ptr %4, align 8, !tbaa !102
  %11 = getelementptr inbounds nuw %struct.AVCodecContext, ptr %10, i32 0, i32 71
  %12 = getelementptr inbounds nuw %struct.AVChannelLayout, ptr %11, i32 0, i32 1
  %13 = load i32, ptr %12, align 4, !tbaa !38
  %14 = icmp slt i32 %9, %13
  br i1 %14, label %15, label %71

15:                                               ; preds = %8
  call void @llvm.lifetime.start.p0(i64 8, ptr %7) #9
  %16 = load ptr, ptr %3, align 8, !tbaa !44
  %17 = getelementptr inbounds nuw %struct.AacPsyContext, ptr %16, i32 0, i32 5
  %18 = load ptr, ptr %17, align 8, !tbaa !73
  %19 = load i32, ptr %5, align 4, !tbaa !39
  %20 = sext i32 %19 to i64
  %21 = getelementptr inbounds %struct.AacPsyChannel, ptr %18, i64 %20
  store ptr %21, ptr %7, align 8, !tbaa !76
  %22 = load ptr, ptr %4, align 8, !tbaa !102
  %23 = getelementptr inbounds nuw %struct.AVCodecContext, ptr %22, i32 0, i32 10
  %24 = load i32, ptr %23, align 8, !tbaa !37
  %25 = and i32 %24, 2
  %26 = icmp ne i32 %25, 0
  br i1 %26, label %27, label %39

27:                                               ; preds = %15
  %28 = load ptr, ptr %4, align 8, !tbaa !102
  %29 = getelementptr inbounds nuw %struct.AVCodecContext, ptr %28, i32 0, i32 82
  %30 = load i32, ptr %29, align 4, !tbaa !46
  %31 = sdiv i32 %30, 118
  %32 = call i32 @av_clip_c(i32 noundef %31, i32 noundef 0, i32 noundef 10) #11
  %33 = sext i32 %32 to i64
  %34 = getelementptr inbounds [11 x %struct.PsyLamePreset], ptr @psy_vbr_map, i64 0, i64 %33
  %35 = getelementptr inbounds nuw %struct.PsyLamePreset, ptr %34, i32 0, i32 1
  %36 = load float, ptr %35, align 4, !tbaa !103
  %37 = load ptr, ptr %7, align 8, !tbaa !76
  %38 = getelementptr inbounds nuw %struct.AacPsyChannel, ptr %37, i32 0, i32 6
  store float %36, ptr %38, align 4, !tbaa !80
  br label %54

39:                                               ; preds = %15
  %40 = load ptr, ptr %4, align 8, !tbaa !102
  %41 = getelementptr inbounds nuw %struct.AVCodecContext, ptr %40, i32 0, i32 9
  %42 = load i64, ptr %41, align 8, !tbaa !20
  %43 = load ptr, ptr %4, align 8, !tbaa !102
  %44 = getelementptr inbounds nuw %struct.AVCodecContext, ptr %43, i32 0, i32 71
  %45 = getelementptr inbounds nuw %struct.AVChannelLayout, ptr %44, i32 0, i32 1
  %46 = load i32, ptr %45, align 4, !tbaa !38
  %47 = sext i32 %46 to i64
  %48 = sdiv i64 %42, %47
  %49 = sdiv i64 %48, 1000
  %50 = trunc i64 %49 to i32
  %51 = call nsz float @lame_calc_attack_threshold(i32 noundef %50)
  %52 = load ptr, ptr %7, align 8, !tbaa !76
  %53 = getelementptr inbounds nuw %struct.AacPsyChannel, ptr %52, i32 0, i32 6
  store float %51, ptr %53, align 4, !tbaa !80
  br label %54

54:                                               ; preds = %39, %27
  store i32 0, ptr %6, align 4, !tbaa !39
  br label %55

55:                                               ; preds = %64, %54
  %56 = load i32, ptr %6, align 4, !tbaa !39
  %57 = icmp slt i32 %56, 24
  br i1 %57, label %58, label %67

58:                                               ; preds = %55
  %59 = load ptr, ptr %7, align 8, !tbaa !76
  %60 = getelementptr inbounds nuw %struct.AacPsyChannel, ptr %59, i32 0, i32 7
  %61 = load i32, ptr %6, align 4, !tbaa !39
  %62 = sext i32 %61 to i64
  %63 = getelementptr inbounds [24 x float], ptr %60, i64 0, i64 %62
  store float 1.000000e+01, ptr %63, align 4, !tbaa !42
  br label %64

64:                                               ; preds = %58
  %65 = load i32, ptr %6, align 4, !tbaa !39
  %66 = add nsw i32 %65, 1
  store i32 %66, ptr %6, align 4, !tbaa !39
  br label %55, !llvm.loop !105

67:                                               ; preds = %55
  call void @llvm.lifetime.end.p0(i64 8, ptr %7) #9
  br label %68

68:                                               ; preds = %67
  %69 = load i32, ptr %5, align 4, !tbaa !39
  %70 = add nsw i32 %69, 1
  store i32 %70, ptr %5, align 4, !tbaa !39
  br label %8, !llvm.loop !106

71:                                               ; preds = %8
  call void @llvm.lifetime.end.p0(i64 4, ptr %6) #9
  call void @llvm.lifetime.end.p0(i64 4, ptr %5) #9
  ret void
}