; Function Attrs: cold nofree norecurse nosync nounwind optsize memory(write, argmem: readwrite, inaccessiblemem: none) uwtable
define internal fastcc void @lame_window_init(ptr noundef nonnull readonly captures(none) %0, ptr noundef readonly captures(none) %1) unnamed_addr #7 {
  %3 = getelementptr inbounds nuw i8, ptr %1, i64 356
  %4 = load i32, ptr %3, align 4, !tbaa !36
  %5 = icmp sgt i32 %4, 0
  br i1 %5, label %.lr.ph, label %._crit_edge

.lr.ph:                                           ; preds = %2
  %6 = getelementptr inbounds nuw i8, ptr %0, i64 3616
  %7 = load ptr, ptr %6, align 8, !tbaa !67
  %8 = getelementptr inbounds nuw i8, ptr %1, i64 64
  %9 = load i32, ptr %8, align 8, !tbaa !35
  %10 = and i32 %9, 2
  %.not = icmp eq i32 %10, 0
  %11 = getelementptr inbounds nuw i8, ptr %1, i64 56
  %12 = zext nneg i32 %4 to i64
  br label %13

13:                                               ; preds = %.lr.ph, %37
  %indvars.iv25 = phi i64 [ 0, %.lr.ph ], [ %indvars.iv.next26, %37 ]
  %14 = getelementptr inbounds nuw %struct.AacPsyChannel, ptr %7, i64 %indvars.iv25
  br i1 %.not, label %15, label %32

15:                                               ; preds = %13
  %16 = load i64, ptr %11, align 8, !tbaa !18
  %17 = sdiv i64 %16, %12
  %18 = sdiv i64 %17, 1000
  %19 = trunc i64 %18 to i32
  br label %20

20:                                               ; preds = %28, %15
  %indvars.iv.i = phi i64 [ 1, %15 ], [ %indvars.iv.next.i, %28 ]
  %21 = getelementptr inbounds nuw [13 x %struct.PsyLamePreset], ptr @psy_abr_map, i64 0, i64 %indvars.iv.i
  %22 = load i32, ptr %21, align 8, !tbaa !132
  %.not.not.i = icmp sgt i32 %22, %19
  br i1 %.not.not.i, label %23, label %28

23:                                               ; preds = %20
  %24 = shl i64 %indvars.iv.i, 32
  %sext.i = add i64 %24, -4294967296
  %25 = ashr exact i64 %sext.i, 32
  %26 = getelementptr inbounds [13 x %struct.PsyLamePreset], ptr @psy_abr_map, i64 0, i64 %25
  %27 = load i32, ptr %26, align 8, !tbaa !132
  br label %lame_calc_attack_threshold.exit

28:                                               ; preds = %20
  %indvars.iv.next.i = add nuw nsw i64 %indvars.iv.i, 1
  %exitcond.not.i = icmp eq i64 %indvars.iv.next.i, 13
  br i1 %exitcond.not.i, label %lame_calc_attack_threshold.exit, label %20, !llvm.loop !134

lame_calc_attack_threshold.exit:                  ; preds = %28, %23
  %.020.i = phi i64 [ %25, %23 ], [ 12, %28 ]
  %.018.i = phi i32 [ %27, %23 ], [ 160, %28 ]
  %.017.i = phi i32 [ %22, %23 ], [ 160, %28 ]
  %29 = sub nsw i32 %.017.i, %19
  %30 = sub nsw i32 %19, %.018.i
  %31 = icmp sgt i32 %29, %30
  %.020..019.i = select i1 %31, i64 %.020.i, i64 %indvars.iv.i
  %.021.in.i = getelementptr inbounds [13 x %struct.PsyLamePreset], ptr @psy_abr_map, i64 0, i64 %.020..019.i, i32 1
  %.021.i = load float, ptr %.021.in.i, align 4, !tbaa !135
  br label %32

32:                                               ; preds = %13, %lame_calc_attack_threshold.exit
  %.021.i.sink = phi float [ %.021.i, %lame_calc_attack_threshold.exit ], [ 0x4010CCCCC0000000, %13 ]
  %33 = getelementptr inbounds nuw i8, ptr %14, i64 9236
  store float %.021.i.sink, ptr %33, align 4, !tbaa !73
  %34 = getelementptr inbounds nuw i8, ptr %14, i64 9240
  br label %35

35:                                               ; preds = %32, %35
  %indvars.iv = phi i64 [ 0, %32 ], [ %indvars.iv.next, %35 ]
  %36 = getelementptr inbounds nuw [24 x float], ptr %34, i64 0, i64 %indvars.iv
  store float 1.000000e+01, ptr %36, align 4, !tbaa !60
  %indvars.iv.next = add nuw nsw i64 %indvars.iv, 1
  %exitcond.not = icmp eq i64 %indvars.iv.next, 24
  br i1 %exitcond.not, label %37, label %35, !llvm.loop !136

37:                                               ; preds = %35
  %indvars.iv.next26 = add nuw nsw i64 %indvars.iv25, 1
  %exitcond28.not = icmp eq i64 %indvars.iv.next26, %12
  br i1 %exitcond28.not, label %._crit_edge, label %13, !llvm.loop !137

._crit_edge:                                      ; preds = %37, %2
  ret void
}